target datalayout = "e-m:e-p270:32:32-p271:32:32-p272:64:64-i64:64-i128:128-f80:128-n8:16:32:64-S128"
target triple = "x86_64-pc-linux-gnu"

%"class.net::StrikeRegister" = type { i32, i32, i32, [8 x i8], i32, i32, i32, i32, ptr, %"class.std::unique_ptr" }
%"class.std::unique_ptr" = type { %"struct.std::__uniq_ptr_data" }
%"struct.std::__uniq_ptr_data" = type { %"class.std::__uniq_ptr_impl" }
%"class.std::__uniq_ptr_impl" = type { %"class.std::tuple" }
%"class.std::tuple" = type { %"struct.std::_Tuple_impl" }
%"struct.std::_Tuple_impl" = type { %"struct.std::_Head_base.1" }
%"struct.std::_Head_base.1" = type { ptr }
%"struct.std::pair" = type { i32, i32 }
%"struct.std::pair.10" = type { i32, i32 }

; Function Attrs: mustprogress nounwind uwtable
define linkonce_odr void @_ZNSt4pairIjjEC2IRjS2_TnNSt9enable_ifIXaaclsr5_PCCPE22_MoveConstructiblePairIT_T0_EEclsr5_PCCPE30_ImplicitlyMoveConvertiblePairIS4_S5_EEEbE4typeELb1EEEOS4_OS5_(ptr noundef nonnull align 4 dereferenceable(8) %0, ptr noundef nonnull align 4 dereferenceable(4) %1, ptr noundef nonnull align 4 dereferenceable(4) %2) unnamed_addr #3 comdat align 2 {
  %4 = alloca ptr, align 8
  %5 = alloca ptr, align 8
  %6 = alloca ptr, align 8
  store ptr %0, ptr %4, align 8, !tbaa !81
  store ptr %1, ptr %5, align 8, !tbaa !9
  store ptr %2, ptr %6, align 8, !tbaa !9
  %7 = load ptr, ptr %4, align 8
  %8 = getelementptr inbounds nuw %"struct.std::pair", ptr %7, i32 0, i32 0
  %9 = load ptr, ptr %5, align 8, !tbaa !9
  %10 = load i32, ptr %9, align 4, !tbaa !3
  store i32 %10, ptr %8, align 4, !tbaa !53
  %11 = getelementptr inbounds nuw %"struct.std::pair", ptr %7, i32 0, i32 1
  %12 = load ptr, ptr %6, align 8, !tbaa !9
  %13 = load i32, ptr %12, align 4, !tbaa !3
  store i32 %13, ptr %11, align 4, !tbaa !55
  ret void
}

; Function Attrs: mustprogress nounwind uwtable
define linkonce_odr void @_ZNSt4pairIjiEC2IjiTnNSt9enable_ifIXaaclsr5_PCCPE22_MoveConstructiblePairIT_T0_EEclsr5_PCCPE30_ImplicitlyMoveConvertiblePairIS3_S4_EEEbE4typeELb1EEEOS3_OS4_(ptr noundef nonnull align 4 dereferenceable(8) %0, ptr noundef nonnull align 4 dereferenceable(4) %1, ptr noundef nonnull align 4 dereferenceable(4) %2) unnamed_addr #3 comdat align 2 {
  %4 = alloca ptr, align 8
  %5 = alloca ptr, align 8
  %6 = alloca ptr, align 8
  store ptr %0, ptr %4, align 8, !tbaa !83
  store ptr %1, ptr %5, align 8, !tbaa !9
  store ptr %2, ptr %6, align 8, !tbaa !9
  %7 = load ptr, ptr %4, align 8
  %8 = getelementptr inbounds nuw %"struct.std::pair.10", ptr %7, i32 0, i32 0
  %9 = load ptr, ptr %5, align 8, !tbaa !9
  %10 = load i32, ptr %9, align 4, !tbaa !3
  store i32 %10, ptr %8, align 4, !tbaa !149
  %11 = getelementptr inbounds nuw %"struct.std::pair.10", ptr %7, i32 0, i32 1
  %12 = load ptr, ptr %6, align 8, !tbaa !9
  %13 = load i32, ptr %12, align 4, !tbaa !3
  store i32 %13, ptr %11, align 4, !tbaa !151
  ret void
}

; Function Attrs: mustprogress uwtable
define linkonce_odr i64 @_ZSt9make_pairIRjS0_ESt4pairINSt25__strip_reference_wrapperINSt5decayIT_E4typeEE6__typeENS2_INS3_IT0_E4typeEE6__typeEEOS4_OS9_(ptr noundef nonnull align 4 dereferenceable(4) %0, ptr noundef nonnull align 4 dereferenceable(4) %1) #0 comdat {
  %3 = alloca %"struct.std::pair", align 4
  %4 = alloca ptr, align 8
  %5 = alloca ptr, align 8
  store ptr %0, ptr %4, align 8, !tbaa !9
  store ptr %1, ptr %5, align 8, !tbaa !9
  %6 = load ptr, ptr %4, align 8, !tbaa !9
  %7 = load ptr, ptr %5, align 8, !tbaa !9
  call void @_ZNSt4pairIjjEC2IRjS2_TnNSt9enable_ifIXaaclsr5_PCCPE22_MoveConstructiblePairIT_T0_EEclsr5_PCCPE30_ImplicitlyMoveConvertiblePairIS4_S5_EEEbE4typeELb1EEEOS4_OS5_(ptr noundef nonnull align 4 dereferenceable(8) %3, ptr noundef nonnull align 4 dereferenceable(4) %6, ptr noundef nonnull align 4 dereferenceable(4) %7)
  %8 = load i64, ptr %3, align 4
  ret i64 %8
}

; Function Attrs: inlinehint mustprogress nounwind uwtable
define linkonce_odr noundef nonnull align 4 dereferenceable(4) ptr @_ZSt3minIjERKT_S2_S2_(ptr noundef nonnull align 4 dereferenceable(4) %0, ptr noundef nonnull align 4 dereferenceable(4) %1) #11 comdat {
  %3 = alloca ptr, align 8
  %4 = alloca ptr, align 8
  %5 = alloca ptr, align 8
  store ptr %0, ptr %4, align 8, !tbaa !9
  store ptr %1, ptr %5, align 8, !tbaa !9
  %6 = load ptr, ptr %5, align 8, !tbaa !9
  %7 = load i32, ptr %6, align 4, !tbaa !3
  %8 = load ptr, ptr %4, align 8, !tbaa !9
  %9 = load i32, ptr %8, align 4, !tbaa !3
  %10 = icmp ult i32 %7, %9
  br i1 %10, label %11, label %13

11:                                               ; preds = %2
  %12 = load ptr, ptr %5, align 8, !tbaa !9
  store ptr %12, ptr %3, align 8
  br label %15

13:                                               ; preds = %2
  %14 = load ptr, ptr %4, align 8, !tbaa !9
  store ptr %14, ptr %3, align 8
  br label %15

15:                                               ; preds = %13, %11
  %16 = load ptr, ptr %3, align 8
  ret ptr %16
}

; Function Attrs: inlinehint mustprogress nounwind uwtable
define linkonce_odr noundef nonnull align 4 dereferenceable(4) ptr @_ZSt3maxIjERKT_S2_S2_(ptr noundef nonnull align 4 dereferenceable(4) %0, ptr noundef nonnull align 4 dereferenceable(4) %1) #11 comdat {
  %3 = alloca ptr, align 8
  %4 = alloca ptr, align 8
  %5 = alloca ptr, align 8
  store ptr %0, ptr %4, align 8, !tbaa !9
  store ptr %1, ptr %5, align 8, !tbaa !9
  %6 = load ptr, ptr %4, align 8, !tbaa !9
  %7 = load i32, ptr %6, align 4, !tbaa !3
  %8 = load ptr, ptr %5, align 8, !tbaa !9
  %9 = load i32, ptr %8, align 4, !tbaa !3
  %10 = icmp ult i32 %7, %9
  br i1 %10, label %11, label %13

11:                                               ; preds = %2
  %12 = load ptr, ptr %5, align 8, !tbaa !9
  store ptr %12, ptr %3, align 8
  br label %15

13:                                               ; preds = %2
  %14 = load ptr, ptr %4, align 8, !tbaa !9
  store ptr %14, ptr %3, align 8
  br label %15

15:                                               ; preds = %13, %11
  %16 = load ptr, ptr %3, align 8
  ret ptr %16
}

; Function Attrs: mustprogress nounwind uwtable
define linkonce_odr void @_ZNSt4pairIjjEC2IjiTnNSt9enable_ifIXaaclsr6_PCCFPIT_T0_EE22_MoveConstructiblePairIS3_S4_EEclsr6_PCCFPIS3_S4_EE30_ImplicitlyMoveConvertiblePairIS3_S4_EEEbE4typeELb1EEEOS_IS3_S4_E(ptr noundef nonnull align 4 dereferenceable(8) %0, ptr noundef nonnull align 4 dereferenceable(8) %1) unnamed_addr #3 comdat align 2 {
  %3 = alloca ptr, align 8
  %4 = alloca ptr, align 8
  store ptr %0, ptr %3, align 8, !tbaa !81
  store ptr %1, ptr %4, align 8, !tbaa !83
  %5 = load ptr, ptr %3, align 8
  %6 = getelementptr inbounds nuw %"struct.std::pair", ptr %5, i32 0, i32 0
  %7 = load ptr, ptr %4, align 8, !tbaa !83
  %8 = getelementptr inbounds nuw %"struct.std::pair.10", ptr %7, i32 0, i32 0
  %9 = load i32, ptr %8, align 4, !tbaa !3
  store i32 %9, ptr %6, align 4, !tbaa !53
  %10 = getelementptr inbounds nuw %"struct.std::pair", ptr %5, i32 0, i32 1
  %11 = load ptr, ptr %4, align 8, !tbaa !83
  %12 = getelementptr inbounds nuw %"struct.std::pair.10", ptr %11, i32 0, i32 1
  %13 = load i32, ptr %12, align 4, !tbaa !3
  store i32 %13, ptr %10, align 4, !tbaa !55
  ret void
}

; Function Attrs: mustprogress uwtable
define linkonce_odr i64 @_ZSt9make_pairIjiESt4pairINSt25__strip_reference_wrapperINSt5decayIT_E4typeEE6__typeENS1_INS2_IT0_E4typeEE6__typeEEOS3_OS8_(ptr noundef nonnull align 4 dereferenceable(4) %0, ptr noundef nonnull align 4 dereferenceable(4) %1) #0 comdat {
  %3 = alloca %"struct.std::pair.10", align 4
  %4 = alloca ptr, align 8
  %5 = alloca ptr, align 8
  store ptr %0, ptr %4, align 8, !tbaa !9
  store ptr %1, ptr %5, align 8, !tbaa !9
  %6 = load ptr, ptr %4, align 8, !tbaa !9
  %7 = load ptr, ptr %5, align 8, !tbaa !9
  call void @_ZNSt4pairIjiEC2IjiTnNSt9enable_ifIXaaclsr5_PCCPE22_MoveConstructiblePairIT_T0_EEclsr5_PCCPE30_ImplicitlyMoveConvertiblePairIS3_S4_EEEbE4typeELb1EEEOS3_OS4_(ptr noundef nonnull align 4 dereferenceable(8) %3, ptr noundef nonnull align 4 dereferenceable(4) %6, ptr noundef nonnull align 4 dereferenceable(4) %7)
  %8 = load i64, ptr %3, align 4
  ret i64 %8
}

; Function Attrs: mustprogress nounwind uwtable
define linkonce_odr noundef i32 @_ZNSt14numeric_limitsIjE3maxEv() #3 comdat align 2 {
  ret i32 -1
}

; Function Attrs: mustprogress uwtable
define i64 @_ZNK3net14StrikeRegister13GetValidRangeEj(ptr noundef nonnull align 8 dereferenceable(56) %0, i32 noundef %1) #0 align 2 {
  %3 = alloca %"struct.std::pair", align 4
  %4 = alloca ptr, align 8
  %5 = alloca i32, align 4
  %6 = alloca %"struct.std::pair.10", align 4
  %7 = alloca i32, align 4
  %8 = alloca i32, align 4
  %9 = alloca i32, align 4
  %10 = alloca i32, align 4
  %11 = alloca i32, align 4
  %12 = alloca i32, align 4
  store ptr %0, ptr %4, align 8, !tbaa !24
  store i32 %1, ptr %5, align 4, !tbaa !3
  %13 = load ptr, ptr %4, align 8
  %14 = load i32, ptr %5, align 4, !tbaa !3
  %15 = getelementptr inbounds nuw %"class.net::StrikeRegister", ptr %13, i32 0, i32 4
  %16 = load i32, ptr %15, align 4, !tbaa !39
  %17 = icmp ult i32 %14, %16
  br i1 %17, label %18, label %21

18:                                               ; preds = %2
  call void @llvm.lifetime.start.p0(i64 8, ptr %6) #17
  call void @llvm.lifetime.start.p0(i64 4, ptr %7) #17
  %19 = call noundef i32 @_ZNSt14numeric_limitsIjE3maxEv() #17
  store i32 %19, ptr %7, align 4, !tbaa !3
  call void @llvm.lifetime.start.p0(i64 4, ptr %8) #17
  store i32 0, ptr %8, align 4, !tbaa !3
  %20 = call i64 @_ZSt9make_pairIjiESt4pairINSt25__strip_reference_wrapperINSt5decayIT_E4typeEE6__typeENS1_INS2_IT0_E4typeEE6__typeEEOS3_OS8_(ptr noundef nonnull align 4 dereferenceable(4) %7, ptr noundef nonnull align 4 dereferenceable(4) %8)
  store i64 %20, ptr %6, align 4
  call void @_ZNSt4pairIjjEC2IjiTnNSt9enable_ifIXaaclsr6_PCCFPIT_T0_EE22_MoveConstructiblePairIS3_S4_EEclsr6_PCCFPIS3_S4_EE30_ImplicitlyMoveConvertiblePairIS3_S4_EEEbE4typeELb1EEEOS_IS3_S4_E(ptr noundef nonnull align 4 dereferenceable(8) %3, ptr noundef nonnull align 4 dereferenceable(8) %6)
  call void @llvm.lifetime.end.p0(i64 4, ptr %8) #17
  call void @llvm.lifetime.end.p0(i64 4, ptr %7) #17
  call void @llvm.lifetime.end.p0(i64 8, ptr %6) #17
  br label %48

21:                                               ; preds = %2
  call void @llvm.lifetime.start.p0(i64 4, ptr %9) #17
  %22 = load i32, ptr %5, align 4, !tbaa !3
  %23 = getelementptr inbounds nuw %"class.net::StrikeRegister", ptr %13, i32 0, i32 1
  %24 = load i32, ptr %23, align 4, !tbaa !37
  %25 = icmp uge i32 %22, %24
  br i1 %25, label %26, label %34

26:                                               ; preds = %21
  %27 = getelementptr inbounds nuw %"class.net::StrikeRegister", ptr %13, i32 0, i32 4
  call void @llvm.lifetime.start.p0(i64 4, ptr %10) #17
  %28 = load i32, ptr %5, align 4, !tbaa !3
  %29 = getelementptr inbounds nuw %"class.net::StrikeRegister", ptr %13, i32 0, i32 1
  %30 = load i32, ptr %29, align 4, !tbaa !37
  %31 = sub i32 %28, %30
  store i32 %31, ptr %10, align 4, !tbaa !3
  %32 = call noundef nonnull align 4 dereferenceable(4) ptr @_ZSt3maxIjERKT_S2_S2_(ptr noundef nonnull align 4 dereferenceable(4) %27, ptr noundef nonnull align 4 dereferenceable(4) %10)
  %33 = load i32, ptr %32, align 4, !tbaa !3
  store i32 %33, ptr %9, align 4, !tbaa !3
  call void @llvm.lifetime.end.p0(i64 4, ptr %10) #17
  br label %37

34:                                               ; preds = %21
  %35 = getelementptr inbounds nuw %"class.net::StrikeRegister", ptr %13, i32 0, i32 4
  %36 = load i32, ptr %35, align 4, !tbaa !39
  store i32 %36, ptr %9, align 4, !tbaa !3
  br label %37

37:                                               ; preds = %34, %26
  call void @llvm.lifetime.start.p0(i64 4, ptr %11) #17
  %38 = load i32, ptr %5, align 4, !tbaa !3
  call void @llvm.lifetime.start.p0(i64 4, ptr %12) #17
  %39 = load i32, ptr %5, align 4, !tbaa !3
  %40 = getelementptr inbounds nuw %"class.net::StrikeRegister", ptr %13, i32 0, i32 4
  %41 = load i32, ptr %40, align 4, !tbaa !39
  %42 = sub i32 %39, %41
  store i32 %42, ptr %12, align 4, !tbaa !3
  %43 = getelementptr inbounds nuw %"class.net::StrikeRegister", ptr %13, i32 0, i32 1
  %44 = call noundef nonnull align 4 dereferenceable(4) ptr @_ZSt3minIjERKT_S2_S2_(ptr noundef nonnull align 4 dereferenceable(4) %12, ptr noundef nonnull align 4 dereferenceable(4) %43)
  %45 = load i32, ptr %44, align 4, !tbaa !3
  %46 = add i32 %38, %45
  call void @llvm.lifetime.end.p0(i64 4, ptr %12) #17
  store i32 %46, ptr %11, align 4, !tbaa !3
  %47 = call i64 @_ZSt9make_pairIRjS0_ESt4pairINSt25__strip_reference_wrapperINSt5decayIT_E4typeEE6__typeENS2_INS3_IT0_E4typeEE6__typeEEOS4_OS9_(ptr noundef nonnull align 4 dereferenceable(4) %9, ptr noundef nonnull align 4 dereferenceable(4) %11)
  store i64 %47, ptr %3, align 4
  call void @llvm.lifetime.end.p0(i64 4, ptr %11) #17
  call void @llvm.lifetime.end.p0(i64 4, ptr %9) #17
  br label %48

48:                                               ; preds = %37, %18
  %49 = load i64, ptr %3, align 4
  ret i64 %49
}

; Function Attrs: mustprogress nounwind uwtable
define noundef i32 @_ZNK3net14StrikeRegister22ExternalTimeToInternalEj(ptr noundef nonnull align 8 dereferenceable(56) %0, i32 noundef %1) #3 align 2 {
  %3 = alloca ptr, align 8
  %4 = alloca i32, align 4
  store ptr %0, ptr %3, align 8, !tbaa !24
  store i32 %1, ptr %4, align 4, !tbaa !3
  %5 = load ptr, ptr %3, align 8
  %6 = load i32, ptr %4, align 4, !tbaa !3
  %7 = getelementptr inbounds nuw %"class.net::StrikeRegister", ptr %5, i32 0, i32 2
  %8 = load i32, ptr %7, align 8, !tbaa !38
  %9 = sub i32 %6, %8
  ret i32 %9
}

; Function Attrs: mustprogress uwtable
define noundef i32 @_ZNK3net14StrikeRegister25GetCurrentValidWindowSecsEj(ptr noundef nonnull align 8 dereferenceable(56) %0, i32 noundef %1) #0 align 2 {
  %3 = alloca i32, align 4
  %4 = alloca ptr, align 8
  %5 = alloca i32, align 4
  %6 = alloca i32, align 4
  %7 = alloca %"struct.std::pair", align 4
  %8 = alloca i32, align 4
  store ptr %0, ptr %4, align 8, !tbaa !24
  store i32 %1, ptr %5, align 4, !tbaa !3
  %9 = load ptr, ptr %4, align 8
  call void @llvm.lifetime.start.p0(i64 4, ptr %6) #17
  %10 = load i32, ptr %5, align 4, !tbaa !3
  %11 = call noundef i32 @_ZNK3net14StrikeRegister22ExternalTimeToInternalEj(ptr noundef nonnull align 8 dereferenceable(56) %9, i32 noundef %10)
  store i32 %11, ptr %6, align 4, !tbaa !3
  call void @llvm.lifetime.start.p0(i64 8, ptr %7) #17
  %12 = load i32, ptr %6, align 4, !tbaa !3
  %13 = call i64 @_ZNK3net14StrikeRegister13GetValidRangeEj(ptr noundef nonnull align 8 dereferenceable(56) %9, i32 noundef %12)
  store i64 %13, ptr %7, align 4
  %14 = getelementptr inbounds nuw %"struct.std::pair", ptr %7, i32 0, i32 1
  %15 = load i32, ptr %14, align 4, !tbaa !55
  %16 = getelementptr inbounds nuw %"struct.std::pair", ptr %7, i32 0, i32 0
  %17 = load i32, ptr %16, align 4, !tbaa !53
  %18 = icmp uge i32 %15, %17
  br i1 %18, label %19, label %25

19:                                               ; preds = %2
  %20 = getelementptr inbounds nuw %"struct.std::pair", ptr %7, i32 0, i32 1
  %21 = load i32, ptr %20, align 4, !tbaa !55
  %22 = load i32, ptr %6, align 4, !tbaa !3
  %23 = sub i32 %21, %22
  %24 = add i32 %23, 1
  store i32 %24, ptr %3, align 4
  store i32 1, ptr %8, align 4
  br label %26

25:                                               ; preds = %2
  store i32 0, ptr %3, align 4
  store i32 1, ptr %8, align 4
  br label %26

26:                                               ; preds = %25, %19
  call void @llvm.lifetime.end.p0(i64 8, ptr %7) #17
  call void @llvm.lifetime.end.p0(i64 4, ptr %6) #17
  %27 = load i32, ptr %3, align 4
  ret i32 %27
}