; Function Attrs: mustprogress nofree norecurse nosync nounwind willreturn memory(argmem: read) uwtable
define noundef i32 @_ZNK3net14StrikeRegister25GetCurrentValidWindowSecsEj(ptr noundef nonnull readonly align 8 captures(none) dereferenceable(56) %0, i32 noundef %1) local_unnamed_addr #4 align 2 {
  %3 = getelementptr inbounds nuw i8, ptr %0, i64 8
  %4 = load i32, ptr %3, align 8, !tbaa !19
  %5 = sub i32 %1, %4
  %6 = getelementptr inbounds nuw i8, ptr %0, i64 20
  %7 = load i32, ptr %6, align 4, !tbaa !20
  %8 = icmp ult i32 %5, %7
  br i1 %8, label %_ZNK3net14StrikeRegister13GetValidRangeEj.exit, label %9

9:                                                ; preds = %2
  %10 = getelementptr inbounds nuw i8, ptr %0, i64 4
  %11 = load i32, ptr %10, align 4, !tbaa !18
  %.not.i = icmp ult i32 %5, %11
  %12 = sub i32 %5, %11
  %.sroa.speculated13.i = tail call i32 @llvm.umax.i32(i32 %7, i32 %12)
  %.0.i = select i1 %.not.i, i32 %7, i32 %.sroa.speculated13.i
  %13 = sub nuw i32 %5, %7
  %.sroa.speculated.i = tail call i32 @llvm.umin.i32(i32 %11, i32 %13)
  %14 = add i32 %.sroa.speculated.i, %5
  %15 = zext i32 %14 to i64
  %16 = shl nuw i64 %15, 32
  %17 = zext i32 %.0.i to i64
  %18 = or disjoint i64 %16, %17
  br label %_ZNK3net14StrikeRegister13GetValidRangeEj.exit

_ZNK3net14StrikeRegister13GetValidRangeEj.exit:   ; preds = %2, %9
  %.sroa.019.0.insert.insert.i = phi i64 [ %18, %9 ], [ 4294967295, %2 ]
  %.sroa.0.0.extract.trunc = trunc i64 %.sroa.019.0.insert.insert.i to i32
  %.sroa.4.0.extract.shift = lshr i64 %.sroa.019.0.insert.insert.i, 32
  %.sroa.4.0.extract.trunc = trunc nuw i64 %.sroa.4.0.extract.shift to i32
  %.not = icmp ult i32 %.sroa.4.0.extract.trunc, %.sroa.0.0.extract.trunc
  %reass.sub = sub i32 %.sroa.4.0.extract.trunc, %5
  %19 = add i32 %reass.sub, 1
  %.0 = select i1 %.not, i32 0, i32 %19
  ret i32 %.0
}